; Function Attrs: mustprogress nounwind uwtable
define dso_local noundef range(i64 0, 2305843009213693952) i64 @_ZNK4llvm22ConstantDataSequential18getElementByteSizeEv(ptr nocapture noundef nonnull readonly align 8 dereferenceable(40) %0) local_unnamed_addr #0 align 2 {
  %2 = alloca %"class.llvm::TypeSize", align 8
  %3 = getelementptr inbounds nuw i8, ptr %0, i64 8
  %4 = load ptr, ptr %3, align 8
  %.0.in.i = getelementptr inbounds nuw i8, ptr %4, i64 24
  %.0.i = load ptr, ptr %.0.in.i, align 8
  %5 = tail call { i64, i8 } @_ZNK4llvm4Type22getPrimitiveSizeInBitsEv(ptr noundef nonnull align 8 dereferenceable(24) %.0.i) #30
  %.fca.0.extract = extractvalue { i64, i8 } %5, 0
  %.fca.1.extract = extractvalue { i64, i8 } %5, 1
  store i64 %.fca.0.extract, ptr %2, align 8
  %.sroa.2.0..sroa_idx = getelementptr inbounds i8, ptr %2, i64 8
  store i8 %.fca.1.extract, ptr %.sroa.2.0..sroa_idx, align 8
  %6 = call noundef i64 @_ZNK4llvm8TypeSizecvmEv(ptr noundef nonnull align 8 dereferenceable(9) %2) #28
  %7 = lshr i64 %6, 3
  ret i64 %7
}